target datalayout = "e-m:e-p270:32:32-p271:32:32-p272:64:64-i64:64-i128:128-f80:128-n8:16:32:64-S128"
target triple = "x86_64-pc-linux-gnu"

%struct.packet_netlink_data = type { i32, i32, i16 }

@hf_netlink_route_rta_iif = internal global i32 0, align 4
@hf_netlink_route_rta_oif = internal global i32 0, align 4
@.str.417 = private unnamed_addr constant [5 x i8] c": %u\00", align 1

; Function Attrs: null_pointer_is_valid sspstrong uwtable
define internal i32 @dissect_netlink_route_route_attrs(ptr noundef %0, ptr noundef %1, ptr noundef %2, ptr noundef %3, i32 noundef %4, i32 noundef %5, i32 noundef %6) #0 {
  %8 = alloca i32, align 4
  %9 = alloca ptr, align 8
  %10 = alloca ptr, align 8
  %11 = alloca ptr, align 8
  %12 = alloca ptr, align 8
  %13 = alloca i32, align 4
  %14 = alloca i32, align 4
  %15 = alloca i32, align 4
  %16 = alloca i32, align 4
  %17 = alloca i32, align 4
  %18 = alloca i32, align 4
  store ptr %0, ptr %9, align 8
  store ptr %1, ptr %10, align 8
  store ptr %2, ptr %11, align 8
  store ptr %3, ptr %12, align 8
  store i32 %4, ptr %13, align 4
  store i32 %5, ptr %14, align 4
  store i32 %6, ptr %15, align 4
  call void @llvm.lifetime.start.p0(i64 4, ptr %16) #4
  %19 = load i32, ptr %13, align 4
  store i32 %19, ptr %16, align 4
  call void @llvm.lifetime.start.p0(i64 4, ptr %17) #4
  %20 = load i32, ptr %16, align 4
  switch i32 %20, label %51 [
    i32 3, label %21
    i32 4, label %36
  ]

21:                                               ; preds = %7
  %22 = load i32, ptr %15, align 4
  %23 = icmp eq i32 %22, 4
  br i1 %23, label %24, label %35

24:                                               ; preds = %21
  %25 = load ptr, ptr %12, align 8
  %26 = load i32, ptr @hf_netlink_route_rta_iif, align 4
  %27 = load ptr, ptr %9, align 8
  %28 = load i32, ptr %14, align 4
  %29 = load ptr, ptr %11, align 8
  %30 = getelementptr inbounds nuw %struct.packet_netlink_data, ptr %29, i32 0, i32 1
  %31 = load i32, ptr %30, align 4
  %32 = call ptr @proto_tree_add_item_ret_uint(ptr noundef %25, i32 noundef %26, ptr noundef %27, i32 noundef %28, i32 noundef 4, i32 noundef %31, ptr noundef %17)
  %33 = load ptr, ptr %12, align 8
  %34 = load i32, ptr %17, align 4
  call void (ptr, ptr, ...) @proto_item_append_text(ptr noundef %33, ptr noundef @.str.417, i32 noundef %34)
  store i32 1, ptr %8, align 4
  store i32 1, ptr %18, align 4
  br label %52

35:                                               ; preds = %21
  store i32 0, ptr %8, align 4
  store i32 1, ptr %18, align 4
  br label %52

36:                                               ; preds = %7
  %37 = load i32, ptr %15, align 4
  %38 = icmp eq i32 %37, 4
  br i1 %38, label %39, label %50

39:                                               ; preds = %36
  %40 = load ptr, ptr %12, align 8
  %41 = load i32, ptr @hf_netlink_route_rta_oif, align 4
  %42 = load ptr, ptr %9, align 8
  %43 = load i32, ptr %14, align 4
  %44 = load ptr, ptr %11, align 8
  %45 = getelementptr inbounds nuw %struct.packet_netlink_data, ptr %44, i32 0, i32 1
  %46 = load i32, ptr %45, align 4
  %47 = call ptr @proto_tree_add_item_ret_uint(ptr noundef %40, i32 noundef %41, ptr noundef %42, i32 noundef %43, i32 noundef 4, i32 noundef %46, ptr noundef %17)
  %48 = load ptr, ptr %12, align 8
  %49 = load i32, ptr %17, align 4
  call void (ptr, ptr, ...) @proto_item_append_text(ptr noundef %48, ptr noundef @.str.417, i32 noundef %49)
  store i32 1, ptr %8, align 4
  store i32 1, ptr %18, align 4
  br label %52

50:                                               ; preds = %36
  store i32 0, ptr %8, align 4
  store i32 1, ptr %18, align 4
  br label %52

51:                                               ; preds = %7
  store i32 0, ptr %8, align 4
  store i32 1, ptr %18, align 4
  br label %52

52:                                               ; preds = %51, %50, %39, %35, %24
  call void @llvm.lifetime.end.p0(i64 4, ptr %17) #4
  call void @llvm.lifetime.end.p0(i64 4, ptr %16) #4
  %53 = load i32, ptr %8, align 4
  ret i32 %53
}