; Function Attrs: null_pointer_is_valid sspstrong uwtable
define internal range(i32 0, 2) i32 @dissect_netlink_route_route_attrs(ptr noundef %0, ptr readnone captures(none) %1, ptr noundef readonly captures(none) %2, ptr noundef %3, i32 noundef %4, i32 noundef %5, i32 noundef %6) #0 {
  %8 = alloca i32, align 4
  call void @llvm.lifetime.start.p0(i64 4, ptr nonnull %8) #5
  switch i32 %4, label %18 [
    i32 3, label %9
    i32 4, label %11
  ]

9:                                                ; preds = %7
  %10 = icmp eq i32 %6, 4
  br i1 %10, label %.sink.split, label %18

11:                                               ; preds = %7
  %12 = icmp eq i32 %6, 4
  br i1 %12, label %.sink.split, label %18

.sink.split:                                      ; preds = %11, %9
  %hf_netlink_route_rta_oif.sink = phi ptr [ @hf_netlink_route_rta_iif, %9 ], [ @hf_netlink_route_rta_oif, %11 ]
  %13 = load i32, ptr %hf_netlink_route_rta_oif.sink, align 4
  %14 = getelementptr inbounds nuw i8, ptr %2, i64 4
  %15 = load i32, ptr %14, align 4
  %16 = call ptr @proto_tree_add_item_ret_uint(ptr noundef %3, i32 noundef %13, ptr noundef %0, i32 noundef %5, i32 noundef 4, i32 noundef %15, ptr noundef nonnull %8)
  %17 = load i32, ptr %8, align 4
  call void (ptr, ptr, ...) @proto_item_append_text(ptr noundef %3, ptr noundef nonnull @.str.417, i32 noundef %17)
  br label %18

18:                                               ; preds = %.sink.split, %7, %11, %9
  %.0 = phi i32 [ 0, %9 ], [ 0, %11 ], [ 0, %7 ], [ 1, %.sink.split ]
  call void @llvm.lifetime.end.p0(i64 4, ptr nonnull %8) #5
  ret i32 %.0
}